target datalayout = "e-m:e-p270:32:32-p271:32:32-p272:64:64-i64:64-i128:128-f80:128-n8:16:32:64-S128"
target triple = "x86_64-pc-linux-gnu"

%struct.Ivy_Man_t_ = type { ptr, ptr, ptr, ptr, ptr, %struct.Ivy_Obj_t_, [8 x i32], i32, i32, ptr, i32, i32, i32, i32, ptr, i32, ptr, ptr, ptr, i32, ptr, ptr, ptr, i64, i64 }
%struct.Ivy_Obj_t_ = type { i32, i32, i32, i32, ptr, ptr, ptr, ptr, ptr, ptr, ptr, ptr }
%struct.Dec_Node_t_ = type { %struct.Dec_Edge_t_, %struct.Dec_Edge_t_, %union.anon, i32 }
%struct.Dec_Edge_t_ = type { i32 }
%union.anon = type { ptr }
%struct.Dec_Graph_t_ = type { i32, i32, i32, i32, ptr, %struct.Dec_Edge_t_ }
%struct.Vec_Int_t_ = type { i32, i32, ptr }

; Function Attrs: inlinehint nounwind uwtable
define internal ptr @Dec_GraphNode(ptr noundef %0, i32 noundef %1) #3 {
  %3 = alloca ptr, align 8
  %4 = alloca i32, align 4
  store ptr %0, ptr %3, align 8, !tbaa !24
  store i32 %1, ptr %4, align 4, !tbaa !8
  %5 = load ptr, ptr %3, align 8, !tbaa !24
  %6 = getelementptr inbounds nuw %struct.Dec_Graph_t_, ptr %5, i32 0, i32 4
  %7 = load ptr, ptr %6, align 8, !tbaa !94
  %8 = load i32, ptr %4, align 4, !tbaa !8
  %9 = sext i32 %8 to i64
  %10 = getelementptr inbounds %struct.Dec_Node_t_, ptr %7, i64 %9
  ret ptr %10
}

; Function Attrs: inlinehint nounwind uwtable
define internal ptr @Dec_GraphVar(ptr noundef %0) #3 {
  %2 = alloca ptr, align 8
  store ptr %0, ptr %2, align 8, !tbaa !24
  %3 = load ptr, ptr %2, align 8, !tbaa !24
  %4 = load ptr, ptr %2, align 8, !tbaa !24
  %5 = getelementptr inbounds nuw %struct.Dec_Graph_t_, ptr %4, i32 0, i32 5
  %6 = load i32, ptr %5, align 8
  %7 = lshr i32 %6, 1
  %8 = and i32 %7, 1073741823
  %9 = call ptr @Dec_GraphNode(ptr noundef %3, i32 noundef %8)
  ret ptr %9
}

; Function Attrs: inlinehint nounwind uwtable
define internal i32 @Dec_GraphIsVar(ptr noundef %0) #3 {
  %2 = alloca ptr, align 8
  store ptr %0, ptr %2, align 8, !tbaa !24
  %3 = load ptr, ptr %2, align 8, !tbaa !24
  %4 = getelementptr inbounds nuw %struct.Dec_Graph_t_, ptr %3, i32 0, i32 5
  %5 = load i32, ptr %4, align 8
  %6 = lshr i32 %5, 1
  %7 = and i32 %6, 1073741823
  %8 = load ptr, ptr %2, align 8, !tbaa !24
  %9 = getelementptr inbounds nuw %struct.Dec_Graph_t_, ptr %8, i32 0, i32 1
  %10 = load i32, ptr %9, align 4, !tbaa !87
  %11 = icmp ult i32 %7, %10
  %12 = zext i1 %11 to i32
  ret i32 %12
}

; Function Attrs: inlinehint nounwind uwtable
define internal ptr @Ivy_NotCond(ptr noundef %0, i32 noundef %1) #3 {
  %3 = alloca ptr, align 8
  %4 = alloca i32, align 4
  store ptr %0, ptr %3, align 8, !tbaa !23
  store i32 %1, ptr %4, align 4, !tbaa !8
  %5 = load ptr, ptr %3, align 8, !tbaa !23
  %6 = ptrtoint ptr %5 to i64
  %7 = load i32, ptr %4, align 4, !tbaa !8
  %8 = sext i32 %7 to i64
  %9 = xor i64 %6, %8
  %10 = inttoptr i64 %9 to ptr
  ret ptr %10
}

; Function Attrs: inlinehint nounwind uwtable
define internal i32 @Dec_GraphIsComplement(ptr noundef %0) #3 {
  %2 = alloca ptr, align 8
  store ptr %0, ptr %2, align 8, !tbaa !24
  %3 = load ptr, ptr %2, align 8, !tbaa !24
  %4 = getelementptr inbounds nuw %struct.Dec_Graph_t_, ptr %3, i32 0, i32 5
  %5 = load i32, ptr %4, align 8
  %6 = and i32 %5, 1
  ret i32 %6
}

; Function Attrs: inlinehint nounwind uwtable
define internal ptr @Ivy_ManConst1(ptr noundef %0) #3 {
  %2 = alloca ptr, align 8
  store ptr %0, ptr %2, align 8, !tbaa !3
  %3 = load ptr, ptr %2, align 8, !tbaa !3
  %4 = getelementptr inbounds nuw %struct.Ivy_Man_t_, ptr %3, i32 0, i32 4
  %5 = load ptr, ptr %4, align 8, !tbaa !93
  ret ptr %5
}

; Function Attrs: inlinehint nounwind uwtable
define internal i32 @Dec_GraphIsConst(ptr noundef %0) #3 {
  %2 = alloca ptr, align 8
  store ptr %0, ptr %2, align 8, !tbaa !24
  %3 = load ptr, ptr %2, align 8, !tbaa !24
  %4 = getelementptr inbounds nuw %struct.Dec_Graph_t_, ptr %3, i32 0, i32 0
  %5 = load i32, ptr %4, align 8, !tbaa !92
  ret i32 %5
}

; Function Attrs: nounwind uwtable
define ptr @Ivy_GraphToNetwork(ptr noundef %0, ptr noundef %1) #0 {
  %3 = alloca ptr, align 8
  %4 = alloca ptr, align 8
  %5 = alloca ptr, align 8
  %6 = alloca ptr, align 8
  %7 = alloca ptr, align 8
  %8 = alloca ptr, align 8
  %9 = alloca i32, align 4
  %10 = alloca i32, align 4
  store ptr %0, ptr %4, align 8, !tbaa !3
  store ptr %1, ptr %5, align 8, !tbaa !24
  call void @llvm.lifetime.start.p0(i64 8, ptr %6) #7
  call void @llvm.lifetime.start.p0(i64 8, ptr %7) #7
  call void @llvm.lifetime.start.p0(i64 8, ptr %8) #7
  store ptr null, ptr %8, align 8, !tbaa !85
  call void @llvm.lifetime.start.p0(i64 4, ptr %9) #7
  %11 = load ptr, ptr %5, align 8, !tbaa !24
  %12 = call i32 @Dec_GraphIsConst(ptr noundef %11)
  %13 = icmp ne i32 %12, 0
  br i1 %13, label %14, label %20

14:                                               ; preds = %2
  %15 = load ptr, ptr %4, align 8, !tbaa !3
  %16 = call ptr @Ivy_ManConst1(ptr noundef %15)
  %17 = load ptr, ptr %5, align 8, !tbaa !24
  %18 = call i32 @Dec_GraphIsComplement(ptr noundef %17)
  %19 = call ptr @Ivy_NotCond(ptr noundef %16, i32 noundef %18)
  store ptr %19, ptr %3, align 8
  store i32 1, ptr %10, align 4
  br label %93

20:                                               ; preds = %2
  %21 = load ptr, ptr %5, align 8, !tbaa !24
  %22 = call i32 @Dec_GraphIsVar(ptr noundef %21)
  %23 = icmp ne i32 %22, 0
  br i1 %23, label %24, label %32

24:                                               ; preds = %20
  %25 = load ptr, ptr %5, align 8, !tbaa !24
  %26 = call ptr @Dec_GraphVar(ptr noundef %25)
  %27 = getelementptr inbounds nuw %struct.Dec_Node_t_, ptr %26, i32 0, i32 2
  %28 = load ptr, ptr %27, align 8, !tbaa !59
  %29 = load ptr, ptr %5, align 8, !tbaa !24
  %30 = call i32 @Dec_GraphIsComplement(ptr noundef %29)
  %31 = call ptr @Ivy_NotCond(ptr noundef %28, i32 noundef %30)
  store ptr %31, ptr %3, align 8
  store i32 1, ptr %10, align 4
  br label %93

32:                                               ; preds = %20
  %33 = load ptr, ptr %5, align 8, !tbaa !24
  %34 = getelementptr inbounds nuw %struct.Dec_Graph_t_, ptr %33, i32 0, i32 1
  %35 = load i32, ptr %34, align 4, !tbaa !87
  store i32 %35, ptr %9, align 4, !tbaa !8
  br label %36

36:                                               ; preds = %83, %32
  %37 = load i32, ptr %9, align 4, !tbaa !8
  %38 = load ptr, ptr %5, align 8, !tbaa !24
  %39 = getelementptr inbounds nuw %struct.Dec_Graph_t_, ptr %38, i32 0, i32 2
  %40 = load i32, ptr %39, align 8, !tbaa !90
  %41 = icmp slt i32 %37, %40
  br i1 %41, label %42, label %46

42:                                               ; preds = %36
  %43 = load ptr, ptr %5, align 8, !tbaa !24
  %44 = load i32, ptr %9, align 4, !tbaa !8
  %45 = call ptr @Dec_GraphNode(ptr noundef %43, i32 noundef %44)
  store ptr %45, ptr %8, align 8, !tbaa !85
  br label %46

46:                                               ; preds = %42, %36
  %47 = phi i1 [ false, %36 ], [ true, %42 ]
  br i1 %47, label %48, label %86

48:                                               ; preds = %46
  %49 = load ptr, ptr %5, align 8, !tbaa !24
  %50 = load ptr, ptr %8, align 8, !tbaa !85
  %51 = getelementptr inbounds nuw %struct.Dec_Node_t_, ptr %50, i32 0, i32 0
  %52 = load i32, ptr %51, align 8
  %53 = lshr i32 %52, 1
  %54 = and i32 %53, 1073741823
  %55 = call ptr @Dec_GraphNode(ptr noundef %49, i32 noundef %54)
  %56 = getelementptr inbounds nuw %struct.Dec_Node_t_, ptr %55, i32 0, i32 2
  %57 = load ptr, ptr %56, align 8, !tbaa !59
  %58 = load ptr, ptr %8, align 8, !tbaa !85
  %59 = getelementptr inbounds nuw %struct.Dec_Node_t_, ptr %58, i32 0, i32 0
  %60 = load i32, ptr %59, align 8
  %61 = and i32 %60, 1
  %62 = call ptr @Ivy_NotCond(ptr noundef %57, i32 noundef %61)
  store ptr %62, ptr %6, align 8, !tbaa !23
  %63 = load ptr, ptr %5, align 8, !tbaa !24
  %64 = load ptr, ptr %8, align 8, !tbaa !85
  %65 = getelementptr inbounds nuw %struct.Dec_Node_t_, ptr %64, i32 0, i32 1
  %66 = load i32, ptr %65, align 4
  %67 = lshr i32 %66, 1
  %68 = and i32 %67, 1073741823
  %69 = call ptr @Dec_GraphNode(ptr noundef %63, i32 noundef %68)
  %70 = getelementptr inbounds nuw %struct.Dec_Node_t_, ptr %69, i32 0, i32 2
  %71 = load ptr, ptr %70, align 8, !tbaa !59
  %72 = load ptr, ptr %8, align 8, !tbaa !85
  %73 = getelementptr inbounds nuw %struct.Dec_Node_t_, ptr %72, i32 0, i32 1
  %74 = load i32, ptr %73, align 4
  %75 = and i32 %74, 1
  %76 = call ptr @Ivy_NotCond(ptr noundef %71, i32 noundef %75)
  store ptr %76, ptr %7, align 8, !tbaa !23
  %77 = load ptr, ptr %4, align 8, !tbaa !3
  %78 = load ptr, ptr %6, align 8, !tbaa !23
  %79 = load ptr, ptr %7, align 8, !tbaa !23
  %80 = call ptr @Ivy_And(ptr noundef %77, ptr noundef %78, ptr noundef %79)
  %81 = load ptr, ptr %8, align 8, !tbaa !85
  %82 = getelementptr inbounds nuw %struct.Dec_Node_t_, ptr %81, i32 0, i32 2
  store ptr %80, ptr %82, align 8, !tbaa !59
  br label %83

83:                                               ; preds = %48
  %84 = load i32, ptr %9, align 4, !tbaa !8
  %85 = add nsw i32 %84, 1
  store i32 %85, ptr %9, align 4, !tbaa !8
  br label %36, !llvm.loop !91

86:                                               ; preds = %46
  %87 = load ptr, ptr %8, align 8, !tbaa !85
  %88 = getelementptr inbounds nuw %struct.Dec_Node_t_, ptr %87, i32 0, i32 2
  %89 = load ptr, ptr %88, align 8, !tbaa !59
  %90 = load ptr, ptr %5, align 8, !tbaa !24
  %91 = call i32 @Dec_GraphIsComplement(ptr noundef %90)
  %92 = call ptr @Ivy_NotCond(ptr noundef %89, i32 noundef %91)
  store ptr %92, ptr %3, align 8
  store i32 1, ptr %10, align 4
  br label %93

93:                                               ; preds = %86, %24, %14
  call void @llvm.lifetime.end.p0(i64 4, ptr %9) #7
  call void @llvm.lifetime.end.p0(i64 8, ptr %8) #7
  call void @llvm.lifetime.end.p0(i64 8, ptr %7) #7
  call void @llvm.lifetime.end.p0(i64 8, ptr %6) #7
  %94 = load ptr, ptr %3, align 8
  ret ptr %94
}

; Function Attrs: inlinehint nounwind uwtable
define internal i32 @Ivy_ManNodeNum(ptr noundef %0) #3 {
  %2 = alloca ptr, align 8
  store ptr %0, ptr %2, align 8, !tbaa !3
  %3 = load ptr, ptr %2, align 8, !tbaa !3
  %4 = getelementptr inbounds nuw %struct.Ivy_Man_t_, ptr %3, i32 0, i32 6
  %5 = getelementptr inbounds [8 x i32], ptr %4, i64 0, i64 5
  %6 = load i32, ptr %5, align 4, !tbaa !8
  %7 = load ptr, ptr %2, align 8, !tbaa !3
  %8 = getelementptr inbounds nuw %struct.Ivy_Man_t_, ptr %7, i32 0, i32 6
  %9 = getelementptr inbounds [8 x i32], ptr %8, i64 0, i64 6
  %10 = load i32, ptr %9, align 8, !tbaa !8
  %11 = add nsw i32 %6, %10
  ret i32 %11
}

; Function Attrs: inlinehint nounwind uwtable
define internal i32 @Vec_IntEntry(ptr noundef %0, i32 noundef %1) #3 {
  %3 = alloca ptr, align 8
  %4 = alloca i32, align 4
  store ptr %0, ptr %3, align 8, !tbaa !78
  store i32 %1, ptr %4, align 4, !tbaa !8
  %5 = load ptr, ptr %3, align 8, !tbaa !78
  %6 = getelementptr inbounds nuw %struct.Vec_Int_t_, ptr %5, i32 0, i32 2
  %7 = load ptr, ptr %6, align 8, !tbaa !79
  %8 = load i32, ptr %4, align 4, !tbaa !8
  %9 = sext i32 %8 to i64
  %10 = getelementptr inbounds i32, ptr %7, i64 %9
  %11 = load i32, ptr %10, align 4, !tbaa !8
  ret i32 %11
}

; Function Attrs: nounwind uwtable
define internal void @Ivy_GraphUpdateNetwork(ptr noundef %0, ptr noundef %1, ptr noundef %2, i32 noundef %3, i32 noundef %4) #0 {
  %6 = alloca ptr, align 8
  %7 = alloca ptr, align 8
  %8 = alloca ptr, align 8
  %9 = alloca i32, align 4
  %10 = alloca i32, align 4
  %11 = alloca ptr, align 8
  %12 = alloca i32, align 4
  %13 = alloca i32, align 4
  %14 = alloca i32, align 4
  store ptr %0, ptr %6, align 8, !tbaa !3
  store ptr %1, ptr %7, align 8, !tbaa !23
  store ptr %2, ptr %8, align 8, !tbaa !24
  store i32 %3, ptr %9, align 4, !tbaa !8
  store i32 %4, ptr %10, align 4, !tbaa !8
  call void @llvm.lifetime.start.p0(i64 8, ptr %11) #7
  call void @llvm.lifetime.start.p0(i64 4, ptr %12) #7
  call void @llvm.lifetime.start.p0(i64 4, ptr %13) #7
  call void @llvm.lifetime.start.p0(i64 4, ptr %14) #7
  %15 = load i32, ptr %9, align 4, !tbaa !8
  %16 = icmp ne i32 %15, 0
  br i1 %16, label %17, label %25

17:                                               ; preds = %5
  %18 = load ptr, ptr %6, align 8, !tbaa !3
  %19 = getelementptr inbounds nuw %struct.Ivy_Man_t_, ptr %18, i32 0, i32 14
  %20 = load ptr, ptr %19, align 8, !tbaa !28
  %21 = load ptr, ptr %7, align 8, !tbaa !23
  %22 = getelementptr inbounds nuw %struct.Ivy_Obj_t_, ptr %21, i32 0, i32 0
  %23 = load i32, ptr %22, align 8, !tbaa !42
  %24 = call i32 @Vec_IntEntry(ptr noundef %20, i32 noundef %23)
  br label %26

25:                                               ; preds = %5
  br label %26

26:                                               ; preds = %25, %17
  %27 = phi i32 [ %24, %17 ], [ 1000000, %25 ]
  store i32 %27, ptr %14, align 4, !tbaa !8
  %28 = load ptr, ptr %6, align 8, !tbaa !3
  %29 = call i32 @Ivy_ManNodeNum(ptr noundef %28)
  store i32 %29, ptr %13, align 4, !tbaa !8
  %30 = load ptr, ptr %6, align 8, !tbaa !3
  %31 = load ptr, ptr %8, align 8, !tbaa !24
  %32 = call ptr @Ivy_GraphToNetwork(ptr noundef %30, ptr noundef %31)
  store ptr %32, ptr %11, align 8, !tbaa !23
  %33 = load ptr, ptr %6, align 8, !tbaa !3
  %34 = load ptr, ptr %7, align 8, !tbaa !23
  %35 = load ptr, ptr %11, align 8, !tbaa !23
  call void @Ivy_ObjReplace(ptr noundef %33, ptr noundef %34, ptr noundef %35, i32 noundef 1, i32 noundef 0, i32 noundef 1)
  %36 = load ptr, ptr %6, align 8, !tbaa !3
  %37 = call i32 @Ivy_ManNodeNum(ptr noundef %36)
  store i32 %37, ptr %12, align 4, !tbaa !8
  %38 = load ptr, ptr %6, align 8, !tbaa !3
  %39 = call i32 @Ivy_ManPropagateBuffers(ptr noundef %38, i32 noundef 1)
  call void @llvm.lifetime.end.p0(i64 4, ptr %14) #7
  call void @llvm.lifetime.end.p0(i64 4, ptr %13) #7
  call void @llvm.lifetime.end.p0(i64 4, ptr %12) #7
  call void @llvm.lifetime.end.p0(i64 8, ptr %11) #7
  ret void
}