; Function Attrs: nounwind uwtable
define internal fastcc void @Ivy_GraphUpdateNetwork(ptr noundef %0, ptr noundef nonnull %1, ptr noundef readonly captures(none) %2) unnamed_addr #0 {
  %.val29.i = load i32, ptr %2, align 8, !tbaa !75
  %.not.i = icmp eq i32 %.val29.i, 0
  %4 = getelementptr i8, ptr %2, i64 24
  %.val31.i = load i32, ptr %4, align 8
  br i1 %.not.i, label %11, label %5

5:                                                ; preds = %3
  %6 = getelementptr i8, ptr %0, i64 32
  %.val32.i = load ptr, ptr %6, align 8, !tbaa !83
  %7 = and i32 %.val31.i, 1
  %8 = ptrtoint ptr %.val32.i to i64
  %9 = zext nneg i32 %7 to i64
  %10 = xor i64 %8, %9
  br label %Ivy_GraphToNetwork.exit

11:                                               ; preds = %3
  %12 = getelementptr i8, ptr %2, i64 4
  %.val30.i = load i32, ptr %12, align 4, !tbaa !76
  %13 = lshr i32 %.val31.i, 1
  %14 = and i32 %13, 1073741823
  %.not38.i = icmp ult i32 %14, %.val30.i
  br i1 %.not38.i, label %20, label %.preheader.i

.preheader.i:                                     ; preds = %11
  %15 = getelementptr inbounds nuw i8, ptr %2, i64 8
  %16 = load i32, ptr %15, align 8, !tbaa !77
  %17 = icmp slt i32 %.val30.i, %16
  tail call void @llvm.assume(i1 %17)
  %18 = getelementptr i8, ptr %2, i64 16
  %19 = zext nneg i32 %.val30.i to i64
  br label %29

20:                                               ; preds = %11
  %21 = getelementptr i8, ptr %2, i64 16
  %.val36.i = load ptr, ptr %21, align 8, !tbaa !70
  %22 = zext nneg i32 %14 to i64
  %23 = getelementptr inbounds nuw %struct.Dec_Node_t_, ptr %.val36.i, i64 %22, i32 2
  %24 = load ptr, ptr %23, align 8, !tbaa !51
  %25 = and i32 %.val31.i, 1
  %26 = ptrtoint ptr %24 to i64
  %27 = zext nneg i32 %25 to i64
  %28 = xor i64 %26, %27
  br label %Ivy_GraphToNetwork.exit

29:                                               ; preds = %29, %.preheader.i
  %indvars.iv.i = phi i64 [ %19, %.preheader.i ], [ %indvars.iv.next.i, %29 ]
  %.val.i = load ptr, ptr %18, align 8, !tbaa !70
  %30 = getelementptr inbounds nuw %struct.Dec_Node_t_, ptr %.val.i, i64 %indvars.iv.i
  %31 = load i32, ptr %30, align 8
  %32 = lshr i32 %31, 1
  %33 = and i32 %32, 1073741823
  %34 = zext nneg i32 %33 to i64
  %35 = getelementptr inbounds nuw %struct.Dec_Node_t_, ptr %.val.i, i64 %34, i32 2
  %36 = load ptr, ptr %35, align 8, !tbaa !51
  %37 = and i32 %31, 1
  %38 = ptrtoint ptr %36 to i64
  %39 = zext nneg i32 %37 to i64
  %40 = xor i64 %39, %38
  %41 = inttoptr i64 %40 to ptr
  %42 = getelementptr inbounds nuw i8, ptr %30, i64 4
  %43 = load i32, ptr %42, align 4
  %44 = lshr i32 %43, 1
  %45 = and i32 %44, 1073741823
  %46 = zext nneg i32 %45 to i64
  %47 = getelementptr inbounds nuw %struct.Dec_Node_t_, ptr %.val.i, i64 %46, i32 2
  %48 = load ptr, ptr %47, align 8, !tbaa !51
  %49 = and i32 %43, 1
  %50 = ptrtoint ptr %48 to i64
  %51 = zext nneg i32 %49 to i64
  %52 = xor i64 %51, %50
  %53 = inttoptr i64 %52 to ptr
  %54 = tail call ptr @Ivy_And(ptr noundef %0, ptr noundef %41, ptr noundef %53) #12
  %55 = getelementptr inbounds nuw i8, ptr %30, i64 8
  store ptr %54, ptr %55, align 8, !tbaa !51
  %indvars.iv.next.i = add nuw nsw i64 %indvars.iv.i, 1
  %56 = load i32, ptr %15, align 8, !tbaa !77
  %57 = sext i32 %56 to i64
  %58 = icmp slt i64 %indvars.iv.next.i, %57
  br i1 %58, label %29, label %.critedge.i, !llvm.loop !97

.critedge.i:                                      ; preds = %29
  %.val35.i = load i32, ptr %4, align 8
  %59 = and i32 %.val35.i, 1
  %60 = ptrtoint ptr %54 to i64
  %61 = zext nneg i32 %59 to i64
  %62 = xor i64 %61, %60
  br label %Ivy_GraphToNetwork.exit

Ivy_GraphToNetwork.exit:                          ; preds = %5, %20, %.critedge.i
  %.025.in.i = phi i64 [ %10, %5 ], [ %28, %20 ], [ %62, %.critedge.i ]
  %.025.i = inttoptr i64 %.025.in.i to ptr
  tail call void @Ivy_ObjReplace(ptr noundef %0, ptr noundef nonnull %1, ptr noundef %.025.i, i32 noundef 1, i32 noundef 0, i32 noundef 1) #12
  %63 = tail call i32 @Ivy_ManPropagateBuffers(ptr noundef %0, i32 noundef 1) #12
  ret void
}